target datalayout = "e-m:e-p270:32:32-p271:32:32-p272:64:64-i64:64-i128:128-f80:128-n8:16:32:64-S128"
target triple = "x86_64-pc-linux-gnu"

%struct.jpeg_common_struct = type { ptr, ptr, ptr, ptr, i32, i32 }
%struct.jpeg_decompress_struct = type { ptr, ptr, ptr, ptr, i32, i32, ptr, i32, i32, i32, i32, i32, i32, i32, double, i32, i32, i32, i32, i32, i32, i32, i32, i32, i32, i32, i32, i32, i32, i32, i32, i32, i32, ptr, i32, i32, i32, i32, i32, ptr, [4 x ptr], [4 x ptr], [4 x ptr], i32, ptr, i32, i32, [16 x i8], [16 x i8], [16 x i8], i32, i32, i8, i8, i8, i16, i16, i32, i8, i32, ptr, i32, i32, i32, i32, ptr, i32, [4 x ptr], i32, i32, i32, [10 x i32], i32, i32, i32, i32, i32, ptr, ptr, ptr, ptr, ptr, ptr, ptr, ptr, ptr, ptr, ptr }
%struct.jpeg_compress_struct = type { ptr, ptr, ptr, ptr, i32, i32, ptr, i32, i32, i32, i32, double, i32, i32, i32, ptr, [4 x ptr], [4 x ptr], [4 x ptr], [16 x i8], [16 x i8], [16 x i8], i32, ptr, i32, i32, i32, i32, i32, i32, i32, i32, i32, i8, i8, i8, i16, i16, i32, i32, i32, i32, i32, i32, i32, [4 x ptr], i32, i32, i32, [10 x i32], i32, i32, i32, i32, ptr, ptr, ptr, ptr, ptr, ptr, ptr, ptr, ptr, ptr, i32 }
%struct.jvirt_sarray_control = type { ptr, i32, i32, i32, i32, i32, i32, i32, i32, i32, i32, ptr, %struct.backing_store_struct }
%struct.backing_store_struct = type { ptr, ptr, ptr, ptr, [64 x i8] }

; Function Attrs: nounwind uwtable
define internal void @do_sarray_io(ptr noundef %0, ptr noundef %1, i32 noundef %2) #0 {
  %4 = alloca ptr, align 8
  %5 = alloca ptr, align 8
  %6 = alloca i32, align 4
  %7 = alloca i64, align 8
  %8 = alloca i64, align 8
  %9 = alloca i64, align 8
  %10 = alloca i64, align 8
  %11 = alloca i64, align 8
  %12 = alloca i64, align 8
  %13 = alloca i32, align 4
  %14 = alloca i64, align 8
  %15 = alloca ptr, align 8
  %16 = alloca ptr, align 8
  store ptr %0, ptr %4, align 8, !tbaa !3
  store ptr %1, ptr %5, align 8, !tbaa !106
  store i32 %2, ptr %6, align 4, !tbaa !40
  call void @llvm.lifetime.start.p0(i64 8, ptr %7) #8
  call void @llvm.lifetime.start.p0(i64 8, ptr %8) #8
  call void @llvm.lifetime.start.p0(i64 8, ptr %9) #8
  call void @llvm.lifetime.start.p0(i64 8, ptr %10) #8
  call void @llvm.lifetime.start.p0(i64 8, ptr %11) #8
  call void @llvm.lifetime.start.p0(i64 8, ptr %12) #8
  call void @llvm.lifetime.start.p0(i64 4, ptr %13) #8
  %17 = load ptr, ptr %4, align 8, !tbaa !3
  %18 = getelementptr inbounds nuw %struct.jpeg_common_struct, ptr %17, i32 0, i32 4
  %19 = load i32, ptr %18, align 8, !tbaa !61
  %20 = icmp ne i32 %19, 0
  br i1 %20, label %21, label %25

21:                                               ; preds = %3
  %22 = load ptr, ptr %4, align 8, !tbaa !3
  %23 = getelementptr inbounds nuw %struct.jpeg_decompress_struct, ptr %22, i32 0, i32 43
  %24 = load i32, ptr %23, align 8, !tbaa !62
  br label %29

25:                                               ; preds = %3
  %26 = load ptr, ptr %4, align 8, !tbaa !3
  %27 = getelementptr inbounds nuw %struct.jpeg_compress_struct, ptr %26, i32 0, i32 12
  %28 = load i32, ptr %27, align 8, !tbaa !80
  br label %29

29:                                               ; preds = %25, %21
  %30 = phi i32 [ %24, %21 ], [ %28, %25 ]
  store i32 %30, ptr %13, align 4, !tbaa !40
  call void @llvm.lifetime.start.p0(i64 8, ptr %14) #8
  %31 = load i32, ptr %13, align 4, !tbaa !40
  %32 = icmp sgt i32 %31, 12
  br i1 %32, label %33, label %34

33:                                               ; preds = %29
  br label %38

34:                                               ; preds = %29
  %35 = load i32, ptr %13, align 4, !tbaa !40
  %36 = icmp sgt i32 %35, 8
  %37 = select i1 %36, i64 2, i64 1
  br label %38

38:                                               ; preds = %34, %33
  %39 = phi i64 [ 2, %33 ], [ %37, %34 ]
  store i64 %39, ptr %14, align 8, !tbaa !14
  %40 = load ptr, ptr %5, align 8, !tbaa !106
  %41 = getelementptr inbounds nuw %struct.jvirt_sarray_control, ptr %40, i32 0, i32 2
  %42 = load i32, ptr %41, align 4, !tbaa !112
  %43 = zext i32 %42 to i64
  %44 = load i64, ptr %14, align 8, !tbaa !14
  %45 = mul nsw i64 %43, %44
  store i64 %45, ptr %7, align 8, !tbaa !14
  %46 = load ptr, ptr %5, align 8, !tbaa !106
  %47 = getelementptr inbounds nuw %struct.jvirt_sarray_control, ptr %46, i32 0, i32 6
  %48 = load i32, ptr %47, align 4, !tbaa !130
  %49 = zext i32 %48 to i64
  %50 = load i64, ptr %7, align 8, !tbaa !14
  %51 = mul nsw i64 %49, %50
  store i64 %51, ptr %8, align 8, !tbaa !14
  store i64 0, ptr %12, align 8, !tbaa !14
  br label %52

52:                                               ; preds = %252, %38
  %53 = load i64, ptr %12, align 8, !tbaa !14
  %54 = load ptr, ptr %5, align 8, !tbaa !106
  %55 = getelementptr inbounds nuw %struct.jvirt_sarray_control, ptr %54, i32 0, i32 4
  %56 = load i32, ptr %55, align 4, !tbaa !128
  %57 = zext i32 %56 to i64
  %58 = icmp slt i64 %53, %57
  br i1 %58, label %59, label %259

59:                                               ; preds = %52
  %60 = load ptr, ptr %5, align 8, !tbaa !106
  %61 = getelementptr inbounds nuw %struct.jvirt_sarray_control, ptr %60, i32 0, i32 5
  %62 = load i32, ptr %61, align 8, !tbaa !129
  %63 = zext i32 %62 to i64
  %64 = load ptr, ptr %5, align 8, !tbaa !106
  %65 = getelementptr inbounds nuw %struct.jvirt_sarray_control, ptr %64, i32 0, i32 4
  %66 = load i32, ptr %65, align 4, !tbaa !128
  %67 = zext i32 %66 to i64
  %68 = load i64, ptr %12, align 8, !tbaa !14
  %69 = sub nsw i64 %67, %68
  %70 = icmp slt i64 %63, %69
  br i1 %70, label %71, label %76

71:                                               ; preds = %59
  %72 = load ptr, ptr %5, align 8, !tbaa !106
  %73 = getelementptr inbounds nuw %struct.jvirt_sarray_control, ptr %72, i32 0, i32 5
  %74 = load i32, ptr %73, align 8, !tbaa !129
  %75 = zext i32 %74 to i64
  br label %83

76:                                               ; preds = %59
  %77 = load ptr, ptr %5, align 8, !tbaa !106
  %78 = getelementptr inbounds nuw %struct.jvirt_sarray_control, ptr %77, i32 0, i32 4
  %79 = load i32, ptr %78, align 4, !tbaa !128
  %80 = zext i32 %79 to i64
  %81 = load i64, ptr %12, align 8, !tbaa !14
  %82 = sub nsw i64 %80, %81
  br label %83

83:                                               ; preds = %76, %71
  %84 = phi i64 [ %75, %71 ], [ %82, %76 ]
  store i64 %84, ptr %10, align 8, !tbaa !14
  %85 = load ptr, ptr %5, align 8, !tbaa !106
  %86 = getelementptr inbounds nuw %struct.jvirt_sarray_control, ptr %85, i32 0, i32 6
  %87 = load i32, ptr %86, align 4, !tbaa !130
  %88 = zext i32 %87 to i64
  %89 = load i64, ptr %12, align 8, !tbaa !14
  %90 = add nsw i64 %88, %89
  store i64 %90, ptr %11, align 8, !tbaa !14
  %91 = load i64, ptr %10, align 8, !tbaa !14
  %92 = load ptr, ptr %5, align 8, !tbaa !106
  %93 = getelementptr inbounds nuw %struct.jvirt_sarray_control, ptr %92, i32 0, i32 7
  %94 = load i32, ptr %93, align 8, !tbaa !131
  %95 = zext i32 %94 to i64
  %96 = load i64, ptr %11, align 8, !tbaa !14
  %97 = sub nsw i64 %95, %96
  %98 = icmp slt i64 %91, %97
  br i1 %98, label %99, label %101

99:                                               ; preds = %83
  %100 = load i64, ptr %10, align 8, !tbaa !14
  br label %108

101:                                              ; preds = %83
  %102 = load ptr, ptr %5, align 8, !tbaa !106
  %103 = getelementptr inbounds nuw %struct.jvirt_sarray_control, ptr %102, i32 0, i32 7
  %104 = load i32, ptr %103, align 8, !tbaa !131
  %105 = zext i32 %104 to i64
  %106 = load i64, ptr %11, align 8, !tbaa !14
  %107 = sub nsw i64 %105, %106
  br label %108

108:                                              ; preds = %101, %99
  %109 = phi i64 [ %100, %99 ], [ %107, %101 ]
  store i64 %109, ptr %10, align 8, !tbaa !14
  %110 = load i64, ptr %10, align 8, !tbaa !14
  %111 = load ptr, ptr %5, align 8, !tbaa !106
  %112 = getelementptr inbounds nuw %struct.jvirt_sarray_control, ptr %111, i32 0, i32 1
  %113 = load i32, ptr %112, align 8, !tbaa !111
  %114 = zext i32 %113 to i64
  %115 = load i64, ptr %11, align 8, !tbaa !14
  %116 = sub nsw i64 %114, %115
  %117 = icmp slt i64 %110, %116
  br i1 %117, label %118, label %120

118:                                              ; preds = %108
  %119 = load i64, ptr %10, align 8, !tbaa !14
  br label %127

120:                                              ; preds = %108
  %121 = load ptr, ptr %5, align 8, !tbaa !106
  %122 = getelementptr inbounds nuw %struct.jvirt_sarray_control, ptr %121, i32 0, i32 1
  %123 = load i32, ptr %122, align 8, !tbaa !111
  %124 = zext i32 %123 to i64
  %125 = load i64, ptr %11, align 8, !tbaa !14
  %126 = sub nsw i64 %124, %125
  br label %127

127:                                              ; preds = %120, %118
  %128 = phi i64 [ %119, %118 ], [ %126, %120 ]
  store i64 %128, ptr %10, align 8, !tbaa !14
  %129 = load i64, ptr %10, align 8, !tbaa !14
  %130 = icmp sle i64 %129, 0
  br i1 %130, label %131, label %132

131:                                              ; preds = %127
  br label %259

132:                                              ; preds = %127
  %133 = load i64, ptr %10, align 8, !tbaa !14
  %134 = load i64, ptr %7, align 8, !tbaa !14
  %135 = mul nsw i64 %133, %134
  store i64 %135, ptr %9, align 8, !tbaa !14
  %136 = load i32, ptr %13, align 4, !tbaa !40
  %137 = icmp sle i32 %136, 8
  br i1 %137, label %138, label %174

138:                                              ; preds = %132
  %139 = load i32, ptr %6, align 4, !tbaa !40
  %140 = icmp ne i32 %139, 0
  br i1 %140, label %141, label %157

141:                                              ; preds = %138
  %142 = load ptr, ptr %5, align 8, !tbaa !106
  %143 = getelementptr inbounds nuw %struct.jvirt_sarray_control, ptr %142, i32 0, i32 12
  %144 = getelementptr inbounds nuw %struct.backing_store_struct, ptr %143, i32 0, i32 1
  %145 = load ptr, ptr %144, align 8, !tbaa !149
  %146 = load ptr, ptr %4, align 8, !tbaa !3
  %147 = load ptr, ptr %5, align 8, !tbaa !106
  %148 = getelementptr inbounds nuw %struct.jvirt_sarray_control, ptr %147, i32 0, i32 12
  %149 = load ptr, ptr %5, align 8, !tbaa !106
  %150 = getelementptr inbounds nuw %struct.jvirt_sarray_control, ptr %149, i32 0, i32 0
  %151 = load ptr, ptr %150, align 8, !tbaa !107
  %152 = load i64, ptr %12, align 8, !tbaa !14
  %153 = getelementptr inbounds ptr, ptr %151, i64 %152
  %154 = load ptr, ptr %153, align 8, !tbaa !55
  %155 = load i64, ptr %8, align 8, !tbaa !14
  %156 = load i64, ptr %9, align 8, !tbaa !14
  call void %145(ptr noundef %146, ptr noundef %148, ptr noundef %154, i64 noundef %155, i64 noundef %156)
  br label %173

157:                                              ; preds = %138
  %158 = load ptr, ptr %5, align 8, !tbaa !106
  %159 = getelementptr inbounds nuw %struct.jvirt_sarray_control, ptr %158, i32 0, i32 12
  %160 = getelementptr inbounds nuw %struct.backing_store_struct, ptr %159, i32 0, i32 0
  %161 = load ptr, ptr %160, align 8, !tbaa !150
  %162 = load ptr, ptr %4, align 8, !tbaa !3
  %163 = load ptr, ptr %5, align 8, !tbaa !106
  %164 = getelementptr inbounds nuw %struct.jvirt_sarray_control, ptr %163, i32 0, i32 12
  %165 = load ptr, ptr %5, align 8, !tbaa !106
  %166 = getelementptr inbounds nuw %struct.jvirt_sarray_control, ptr %165, i32 0, i32 0
  %167 = load ptr, ptr %166, align 8, !tbaa !107
  %168 = load i64, ptr %12, align 8, !tbaa !14
  %169 = getelementptr inbounds ptr, ptr %167, i64 %168
  %170 = load ptr, ptr %169, align 8, !tbaa !55
  %171 = load i64, ptr %8, align 8, !tbaa !14
  %172 = load i64, ptr %9, align 8, !tbaa !14
  call void %161(ptr noundef %162, ptr noundef %164, ptr noundef %170, i64 noundef %171, i64 noundef %172)
  br label %173

173:                                              ; preds = %157, %141
  br label %248

174:                                              ; preds = %132
  %175 = load i32, ptr %13, align 4, !tbaa !40
  %176 = icmp sle i32 %175, 12
  br i1 %176, label %177, label %212

177:                                              ; preds = %174
  call void @llvm.lifetime.start.p0(i64 8, ptr %15) #8
  %178 = load ptr, ptr %5, align 8, !tbaa !106
  %179 = getelementptr inbounds nuw %struct.jvirt_sarray_control, ptr %178, i32 0, i32 0
  %180 = load ptr, ptr %179, align 8, !tbaa !107
  store ptr %180, ptr %15, align 8, !tbaa !96
  %181 = load i32, ptr %6, align 4, !tbaa !40
  %182 = icmp ne i32 %181, 0
  br i1 %182, label %183, label %197

183:                                              ; preds = %177
  %184 = load ptr, ptr %5, align 8, !tbaa !106
  %185 = getelementptr inbounds nuw %struct.jvirt_sarray_control, ptr %184, i32 0, i32 12
  %186 = getelementptr inbounds nuw %struct.backing_store_struct, ptr %185, i32 0, i32 1
  %187 = load ptr, ptr %186, align 8, !tbaa !149
  %188 = load ptr, ptr %4, align 8, !tbaa !3
  %189 = load ptr, ptr %5, align 8, !tbaa !106
  %190 = getelementptr inbounds nuw %struct.jvirt_sarray_control, ptr %189, i32 0, i32 12
  %191 = load ptr, ptr %15, align 8, !tbaa !96
  %192 = load i64, ptr %12, align 8, !tbaa !14
  %193 = getelementptr inbounds ptr, ptr %191, i64 %192
  %194 = load ptr, ptr %193, align 8, !tbaa !98
  %195 = load i64, ptr %8, align 8, !tbaa !14
  %196 = load i64, ptr %9, align 8, !tbaa !14
  call void %187(ptr noundef %188, ptr noundef %190, ptr noundef %194, i64 noundef %195, i64 noundef %196)
  br label %211

197:                                              ; preds = %177
  %198 = load ptr, ptr %5, align 8, !tbaa !106
  %199 = getelementptr inbounds nuw %struct.jvirt_sarray_control, ptr %198, i32 0, i32 12
  %200 = getelementptr inbounds nuw %struct.backing_store_struct, ptr %199, i32 0, i32 0
  %201 = load ptr, ptr %200, align 8, !tbaa !150
  %202 = load ptr, ptr %4, align 8, !tbaa !3
  %203 = load ptr, ptr %5, align 8, !tbaa !106
  %204 = getelementptr inbounds nuw %struct.jvirt_sarray_control, ptr %203, i32 0, i32 12
  %205 = load ptr, ptr %15, align 8, !tbaa !96
  %206 = load i64, ptr %12, align 8, !tbaa !14
  %207 = getelementptr inbounds ptr, ptr %205, i64 %206
  %208 = load ptr, ptr %207, align 8, !tbaa !98
  %209 = load i64, ptr %8, align 8, !tbaa !14
  %210 = load i64, ptr %9, align 8, !tbaa !14
  call void %201(ptr noundef %202, ptr noundef %204, ptr noundef %208, i64 noundef %209, i64 noundef %210)
  br label %211

211:                                              ; preds = %197, %183
  call void @llvm.lifetime.end.p0(i64 8, ptr %15) #8
  br label %247

212:                                              ; preds = %174
  call void @llvm.lifetime.start.p0(i64 8, ptr %16) #8
  %213 = load ptr, ptr %5, align 8, !tbaa !106
  %214 = getelementptr inbounds nuw %struct.jvirt_sarray_control, ptr %213, i32 0, i32 0
  %215 = load ptr, ptr %214, align 8, !tbaa !107
  store ptr %215, ptr %16, align 8, !tbaa !96
  %216 = load i32, ptr %6, align 4, !tbaa !40
  %217 = icmp ne i32 %216, 0
  br i1 %217, label %218, label %232

218:                                              ; preds = %212
  %219 = load ptr, ptr %5, align 8, !tbaa !106
  %220 = getelementptr inbounds nuw %struct.jvirt_sarray_control, ptr %219, i32 0, i32 12
  %221 = getelementptr inbounds nuw %struct.backing_store_struct, ptr %220, i32 0, i32 1
  %222 = load ptr, ptr %221, align 8, !tbaa !149
  %223 = load ptr, ptr %4, align 8, !tbaa !3
  %224 = load ptr, ptr %5, align 8, !tbaa !106
  %225 = getelementptr inbounds nuw %struct.jvirt_sarray_control, ptr %224, i32 0, i32 12
  %226 = load ptr, ptr %16, align 8, !tbaa !96
  %227 = load i64, ptr %12, align 8, !tbaa !14
  %228 = getelementptr inbounds ptr, ptr %226, i64 %227
  %229 = load ptr, ptr %228, align 8, !tbaa !98
  %230 = load i64, ptr %8, align 8, !tbaa !14
  %231 = load i64, ptr %9, align 8, !tbaa !14
  call void %222(ptr noundef %223, ptr noundef %225, ptr noundef %229, i64 noundef %230, i64 noundef %231)
  br label %246

232:                                              ; preds = %212
  %233 = load ptr, ptr %5, align 8, !tbaa !106
  %234 = getelementptr inbounds nuw %struct.jvirt_sarray_control, ptr %233, i32 0, i32 12
  %235 = getelementptr inbounds nuw %struct.backing_store_struct, ptr %234, i32 0, i32 0
  %236 = load ptr, ptr %235, align 8, !tbaa !150
  %237 = load ptr, ptr %4, align 8, !tbaa !3
  %238 = load ptr, ptr %5, align 8, !tbaa !106
  %239 = getelementptr inbounds nuw %struct.jvirt_sarray_control, ptr %238, i32 0, i32 12
  %240 = load ptr, ptr %16, align 8, !tbaa !96
  %241 = load i64, ptr %12, align 8, !tbaa !14
  %242 = getelementptr inbounds ptr, ptr %240, i64 %241
  %243 = load ptr, ptr %242, align 8, !tbaa !98
  %244 = load i64, ptr %8, align 8, !tbaa !14
  %245 = load i64, ptr %9, align 8, !tbaa !14
  call void %236(ptr noundef %237, ptr noundef %239, ptr noundef %243, i64 noundef %244, i64 noundef %245)
  br label %246

246:                                              ; preds = %232, %218
  call void @llvm.lifetime.end.p0(i64 8, ptr %16) #8
  br label %247

247:                                              ; preds = %246, %211
  br label %248

248:                                              ; preds = %247, %173
  %249 = load i64, ptr %9, align 8, !tbaa !14
  %250 = load i64, ptr %8, align 8, !tbaa !14
  %251 = add nsw i64 %250, %249
  store i64 %251, ptr %8, align 8, !tbaa !14
  br label %252

252:                                              ; preds = %248
  %253 = load ptr, ptr %5, align 8, !tbaa !106
  %254 = getelementptr inbounds nuw %struct.jvirt_sarray_control, ptr %253, i32 0, i32 5
  %255 = load i32, ptr %254, align 8, !tbaa !129
  %256 = zext i32 %255 to i64
  %257 = load i64, ptr %12, align 8, !tbaa !14
  %258 = add nsw i64 %257, %256
  store i64 %258, ptr %12, align 8, !tbaa !14
  br label %52, !llvm.loop !151

259:                                              ; preds = %131, %52
  call void @llvm.lifetime.end.p0(i64 8, ptr %14) #8
  call void @llvm.lifetime.end.p0(i64 4, ptr %13) #8
  call void @llvm.lifetime.end.p0(i64 8, ptr %12) #8
  call void @llvm.lifetime.end.p0(i64 8, ptr %11) #8
  call void @llvm.lifetime.end.p0(i64 8, ptr %10) #8
  call void @llvm.lifetime.end.p0(i64 8, ptr %9) #8
  call void @llvm.lifetime.end.p0(i64 8, ptr %8) #8
  call void @llvm.lifetime.end.p0(i64 8, ptr %7) #8
  ret void
}