; Function Attrs: nounwind uwtable
define internal fastcc void @do_sarray_io(ptr noundef %0, ptr noundef %1, i32 noundef range(i32 0, 2) %2) unnamed_addr #0 {
  %4 = getelementptr inbounds nuw i8, ptr %0, i64 32
  %5 = load i32, ptr %4, align 8, !tbaa !52
  %.not = icmp eq i32 %5, 0
  %.in.v = select i1 %.not, i64 72, i64 296
  %.in = getelementptr inbounds nuw i8, ptr %0, i64 %.in.v
  %6 = load i32, ptr %.in, align 8, !tbaa !53
  %.fr110 = freeze i32 %6
  %7 = icmp sgt i32 %.fr110, 8
  %8 = getelementptr inbounds nuw i8, ptr %1, i64 12
  %9 = load i32, ptr %8, align 4, !tbaa !72
  %10 = zext i32 %9 to i64
  %11 = zext i1 %7 to i64
  %12 = shl nuw nsw i64 %10, %11
  %13 = getelementptr inbounds nuw i8, ptr %1, i64 28
  %14 = load i32, ptr %13, align 4, !tbaa !94
  %15 = zext i32 %14 to i64
  %16 = mul nuw nsw i64 %12, %15
  %17 = getelementptr inbounds nuw i8, ptr %1, i64 24
  %18 = getelementptr inbounds nuw i8, ptr %1, i64 20
  %19 = load i32, ptr %18, align 4, !tbaa !92
  %20 = zext i32 %19 to i64
  %.not109 = icmp eq i32 %19, 0
  br i1 %.not109, label %._crit_edge, label %.lr.ph

.lr.ph:                                           ; preds = %3
  %21 = getelementptr inbounds nuw i8, ptr %1, i64 32
  %22 = getelementptr inbounds nuw i8, ptr %1, i64 8
  %23 = icmp slt i32 %.fr110, 9
  %.not96 = icmp eq i32 %2, 0
  %24 = getelementptr inbounds nuw i8, ptr %1, i64 56
  %25 = getelementptr inbounds nuw i8, ptr %1, i64 64
  br i1 %23, label %.lr.ph.split.us.preheader, label %.lr.ph.split

.lr.ph.split.us.preheader:                        ; preds = %.lr.ph
  %.pre116 = load i32, ptr %17, align 8, !tbaa !93
  %.124 = select i1 %.not96, ptr %24, ptr %25
  br label %.lr.ph.split.us

.lr.ph.split.us:                                  ; preds = %.lr.ph.split.us.preheader, %42
  %26 = phi i32 [ %48, %42 ], [ %.pre116, %.lr.ph.split.us.preheader ]
  %27 = phi i64 [ %52, %42 ], [ %20, %.lr.ph.split.us.preheader ]
  %.0100.us = phi i64 [ %47, %42 ], [ %16, %.lr.ph.split.us.preheader ]
  %.08699.us = phi i64 [ %50, %42 ], [ 0, %.lr.ph.split.us.preheader ]
  %28 = zext i32 %26 to i64
  %29 = sub nuw nsw i64 %27, %.08699.us
  %..us = tail call i64 @llvm.umin.i64(i64 %29, i64 %28)
  %30 = load i32, ptr %13, align 4, !tbaa !94
  %31 = zext i32 %30 to i64
  %32 = add nuw nsw i64 %.08699.us, %31
  %33 = load i32, ptr %21, align 8, !tbaa !95
  %34 = zext i32 %33 to i64
  %35 = sub nsw i64 %34, %32
  %36 = tail call i64 @llvm.smin.i64(i64 %..us, i64 %35)
  %37 = load i32, ptr %22, align 8, !tbaa !71
  %38 = zext i32 %37 to i64
  %39 = sub nsw i64 %38, %32
  %40 = tail call i64 @llvm.smin.i64(i64 %36, i64 %39)
  %41 = icmp slt i64 %40, 1
  br i1 %41, label %._crit_edge, label %42

42:                                               ; preds = %.lr.ph.split.us
  %43 = mul nuw nsw i64 %40, %12
  %44 = load ptr, ptr %1, align 8, !tbaa !67
  %45 = getelementptr inbounds nuw ptr, ptr %44, i64 %.08699.us
  %46 = load ptr, ptr %45, align 8, !tbaa !56
  %.sink = load ptr, ptr %.124, align 8, !tbaa !116
  tail call void %.sink(ptr noundef %0, ptr noundef nonnull %24, ptr noundef %46, i64 noundef %.0100.us, i64 noundef %43) #9
  %47 = add nuw nsw i64 %43, %.0100.us
  %48 = load i32, ptr %17, align 8, !tbaa !93
  %49 = zext i32 %48 to i64
  %50 = add nuw nsw i64 %.08699.us, %49
  %51 = load i32, ptr %18, align 4, !tbaa !92
  %52 = zext i32 %51 to i64
  %53 = icmp samesign ult i64 %50, %52
  br i1 %53, label %.lr.ph.split.us, label %._crit_edge, !llvm.loop !117

.lr.ph.split:                                     ; preds = %.lr.ph
  %54 = icmp samesign ult i32 %.fr110, 13
  %.pre115 = load i32, ptr %17, align 8, !tbaa !93
  br i1 %54, label %.lr.ph.split.split.us.preheader, label %.lr.ph.split.split

.lr.ph.split.split.us.preheader:                  ; preds = %.lr.ph.split
  %.125 = select i1 %.not96, ptr %24, ptr %25
  br label %.lr.ph.split.split.us

.lr.ph.split.split.us:                            ; preds = %.lr.ph.split.split.us.preheader, %71
  %55 = phi i32 [ %77, %71 ], [ %.pre115, %.lr.ph.split.split.us.preheader ]
  %56 = phi i64 [ %81, %71 ], [ %20, %.lr.ph.split.split.us.preheader ]
  %.0100.us102 = phi i64 [ %76, %71 ], [ %16, %.lr.ph.split.split.us.preheader ]
  %.08699.us103 = phi i64 [ %79, %71 ], [ 0, %.lr.ph.split.split.us.preheader ]
  %57 = zext i32 %55 to i64
  %58 = sub nuw nsw i64 %56, %.08699.us103
  %..us104 = tail call i64 @llvm.umin.i64(i64 %58, i64 %57)
  %59 = load i32, ptr %13, align 4, !tbaa !94
  %60 = zext i32 %59 to i64
  %61 = add nuw nsw i64 %.08699.us103, %60
  %62 = load i32, ptr %21, align 8, !tbaa !95
  %63 = zext i32 %62 to i64
  %64 = sub nsw i64 %63, %61
  %65 = tail call i64 @llvm.smin.i64(i64 %..us104, i64 %64)
  %66 = load i32, ptr %22, align 8, !tbaa !71
  %67 = zext i32 %66 to i64
  %68 = sub nsw i64 %67, %61
  %69 = tail call i64 @llvm.smin.i64(i64 %65, i64 %68)
  %70 = icmp slt i64 %69, 1
  br i1 %70, label %._crit_edge, label %71

71:                                               ; preds = %.lr.ph.split.split.us
  %72 = mul nuw nsw i64 %69, %12
  %73 = load ptr, ptr %1, align 8, !tbaa !67
  %74 = getelementptr inbounds nuw ptr, ptr %73, i64 %.08699.us103
  %75 = load ptr, ptr %74, align 8, !tbaa !60
  %.sink120 = load ptr, ptr %.125, align 8, !tbaa !116
  tail call void %.sink120(ptr noundef %0, ptr noundef nonnull %24, ptr noundef %75, i64 noundef %.0100.us102, i64 noundef %72) #9
  %76 = add nuw nsw i64 %72, %.0100.us102
  %77 = load i32, ptr %17, align 8, !tbaa !93
  %78 = zext i32 %77 to i64
  %79 = add nuw nsw i64 %.08699.us103, %78
  %80 = load i32, ptr %18, align 4, !tbaa !92
  %81 = zext i32 %80 to i64
  %82 = icmp samesign ult i64 %79, %81
  br i1 %82, label %.lr.ph.split.split.us, label %._crit_edge, !llvm.loop !117

.lr.ph.split.split:                               ; preds = %.lr.ph.split
  br i1 %.not96, label %.lr.ph.split.split.split.us, label %.lr.ph.split.split.split

.lr.ph.split.split.split.us:                      ; preds = %.lr.ph.split.split, %99
  %83 = phi i32 [ %106, %99 ], [ %.pre115, %.lr.ph.split.split ]
  %84 = phi i64 [ %110, %99 ], [ %20, %.lr.ph.split.split ]
  %.0100.us106 = phi i64 [ %105, %99 ], [ %16, %.lr.ph.split.split ]
  %.08699.us107 = phi i64 [ %108, %99 ], [ 0, %.lr.ph.split.split ]
  %85 = zext i32 %83 to i64
  %86 = sub nuw nsw i64 %84, %.08699.us107
  %..us108 = tail call i64 @llvm.umin.i64(i64 %86, i64 %85)
  %87 = load i32, ptr %13, align 4, !tbaa !94
  %88 = zext i32 %87 to i64
  %89 = add nuw nsw i64 %.08699.us107, %88
  %90 = load i32, ptr %21, align 8, !tbaa !95
  %91 = zext i32 %90 to i64
  %92 = sub nsw i64 %91, %89
  %93 = tail call i64 @llvm.smin.i64(i64 %..us108, i64 %92)
  %94 = load i32, ptr %22, align 8, !tbaa !71
  %95 = zext i32 %94 to i64
  %96 = sub nsw i64 %95, %89
  %97 = tail call i64 @llvm.smin.i64(i64 %93, i64 %96)
  %98 = icmp slt i64 %97, 1
  br i1 %98, label %._crit_edge, label %99

99:                                               ; preds = %.lr.ph.split.split.split.us
  %100 = mul nuw nsw i64 %97, %12
  %101 = load ptr, ptr %1, align 8, !tbaa !67
  %102 = load ptr, ptr %24, align 8, !tbaa !118
  %103 = getelementptr inbounds nuw ptr, ptr %101, i64 %.08699.us107
  %104 = load ptr, ptr %103, align 8, !tbaa !60
  tail call void %102(ptr noundef %0, ptr noundef nonnull %24, ptr noundef %104, i64 noundef %.0100.us106, i64 noundef %100) #9
  %105 = add nuw nsw i64 %100, %.0100.us106
  %106 = load i32, ptr %17, align 8, !tbaa !93
  %107 = zext i32 %106 to i64
  %108 = add nuw nsw i64 %.08699.us107, %107
  %109 = load i32, ptr %18, align 4, !tbaa !92
  %110 = zext i32 %109 to i64
  %111 = icmp samesign ult i64 %108, %110
  br i1 %111, label %.lr.ph.split.split.split.us, label %._crit_edge, !llvm.loop !117

.lr.ph.split.split.split:                         ; preds = %.lr.ph.split.split, %128
  %112 = phi i32 [ %135, %128 ], [ %.pre115, %.lr.ph.split.split ]
  %113 = phi i64 [ %139, %128 ], [ %20, %.lr.ph.split.split ]
  %.0100 = phi i64 [ %134, %128 ], [ %16, %.lr.ph.split.split ]
  %.08699 = phi i64 [ %137, %128 ], [ 0, %.lr.ph.split.split ]
  %114 = zext i32 %112 to i64
  %115 = sub nuw nsw i64 %113, %.08699
  %. = tail call i64 @llvm.umin.i64(i64 %115, i64 %114)
  %116 = load i32, ptr %13, align 4, !tbaa !94
  %117 = zext i32 %116 to i64
  %118 = add nuw nsw i64 %.08699, %117
  %119 = load i32, ptr %21, align 8, !tbaa !95
  %120 = zext i32 %119 to i64
  %121 = sub nsw i64 %120, %118
  %122 = tail call i64 @llvm.smin.i64(i64 %., i64 %121)
  %123 = load i32, ptr %22, align 8, !tbaa !71
  %124 = zext i32 %123 to i64
  %125 = sub nsw i64 %124, %118
  %126 = tail call i64 @llvm.smin.i64(i64 %122, i64 %125)
  %127 = icmp slt i64 %126, 1
  br i1 %127, label %._crit_edge, label %128

128:                                              ; preds = %.lr.ph.split.split.split
  %129 = mul nuw nsw i64 %126, %12
  %130 = load ptr, ptr %1, align 8, !tbaa !67
  %131 = load ptr, ptr %25, align 8, !tbaa !119
  %132 = getelementptr inbounds nuw ptr, ptr %130, i64 %.08699
  %133 = load ptr, ptr %132, align 8, !tbaa !60
  tail call void %131(ptr noundef %0, ptr noundef nonnull %24, ptr noundef %133, i64 noundef %.0100, i64 noundef %129) #9
  %134 = add nuw nsw i64 %129, %.0100
  %135 = load i32, ptr %17, align 8, !tbaa !93
  %136 = zext i32 %135 to i64
  %137 = add nuw nsw i64 %.08699, %136
  %138 = load i32, ptr %18, align 4, !tbaa !92
  %139 = zext i32 %138 to i64
  %140 = icmp samesign ult i64 %137, %139
  br i1 %140, label %.lr.ph.split.split.split, label %._crit_edge, !llvm.loop !117

._crit_edge:                                      ; preds = %128, %.lr.ph.split.split.split, %99, %.lr.ph.split.split.split.us, %71, %.lr.ph.split.split.us, %42, %.lr.ph.split.us, %3
  ret void
}